; Function Attrs: nounwind uwtable
define hidden noundef i32 @phpdbg_do_until(ptr nocapture readnone %0) #0 {
  %2 = alloca %struct._zval_struct, align 8
  %3 = load i8, ptr getelementptr inbounds (%struct._zend_phpdbg_globals, ptr @phpdbg_globals, i64 0, i32 30), align 8
  %4 = and i8 %3, 1
  %.not = icmp eq i8 %4, 0
  br i1 %.not, label %5, label %8

5:                                                ; preds = %1
  %6 = load i32, ptr getelementptr inbounds (%struct._zend_phpdbg_globals, ptr @phpdbg_globals, i64 0, i32 39, i64 1), align 4
  %7 = tail call i32 (i32, i32, ptr, ...) @phpdbg_print(i32 noundef 1, i32 noundef %6, ptr noundef nonnull @.str.85) #24
  br label %43

8:                                                ; preds = %1
  call void @llvm.lifetime.start.p0(i64 16, ptr nonnull %2)
  br label %9

9:                                                ; preds = %.critedge.i, %8
  %.024.in.i = phi ptr [ getelementptr inbounds (%struct._zend_executor_globals, ptr @executor_globals, i64 0, i32 17), %8 ], [ %14, %.critedge.i ]
  %.024.i = load ptr, ptr %.024.in.i, align 8
  %10 = getelementptr inbounds i8, ptr %.024.i, i64 24
  %11 = load ptr, ptr %10, align 8
  %.not.i = icmp eq ptr %11, null
  br i1 %.not.i, label %.critedge.i, label %12

12:                                               ; preds = %9
  %13 = load i8, ptr %11, align 8
  %.not28.i = icmp eq i8 %13, 1
  br i1 %.not28.i, label %.critedge.i, label %15

.critedge.i:                                      ; preds = %12, %9
  %14 = getelementptr inbounds i8, ptr %.024.i, i64 48
  br label %9

15:                                               ; preds = %12
  %16 = getelementptr inbounds i8, ptr %11, i64 88
  %17 = load ptr, ptr %16, align 8
  %18 = load i64, ptr getelementptr inbounds (%struct._zend_phpdbg_globals, ptr @phpdbg_globals, i64 0, i32 53), align 8
  %19 = or i64 %18, 1048576
  store i64 %19, ptr getelementptr inbounds (%struct._zend_phpdbg_globals, ptr @phpdbg_globals, i64 0, i32 53), align 8
  store ptr %.024.i, ptr getelementptr inbounds (%struct._zend_phpdbg_globals, ptr @phpdbg_globals, i64 0, i32 3), align 8
  %20 = getelementptr inbounds i8, ptr %2, i64 8
  %21 = getelementptr inbounds i8, ptr %11, i64 84
  br label %22

22:                                               ; preds = %36, %15
  %.0.i = phi ptr [ %17, %15 ], [ %37, %36 ]
  %23 = getelementptr inbounds i8, ptr %.0.i, i64 24
  %24 = load i32, ptr %23, align 8
  %25 = load ptr, ptr %.024.i, align 8
  %26 = getelementptr inbounds i8, ptr %25, i64 24
  %27 = load i32, ptr %26, align 8
  %.not29.i = icmp eq i32 %24, %27
  br i1 %.not29.i, label %28, label %31

28:                                               ; preds = %22
  %29 = getelementptr inbounds i8, ptr %.0.i, i64 28
  %30 = load i8, ptr %29, align 4
  switch i8 %30, label %36 [
    i8 62, label %31
    i8 -93, label %31
    i8 -95, label %31
    i8 79, label %31
    i8 -96, label %31
    i8 -90, label %31
  ]

31:                                               ; preds = %28, %28, %28, %28, %28, %28, %22
  %32 = ptrtoint ptr %.0.i to i64
  store ptr %.0.i, ptr %2, align 8
  store i32 13, ptr %20, align 8
  %33 = call ptr @zend_hash_index_update(ptr noundef nonnull getelementptr inbounds (%struct._zend_phpdbg_globals, ptr @phpdbg_globals, i64 0, i32 2), i64 noundef %32, ptr noundef nonnull %2) #24
  %34 = load ptr, ptr %33, align 8
  %35 = icmp ne ptr %34, null
  call void @llvm.assume(i1 %35)
  br label %36

36:                                               ; preds = %31, %28
  %37 = getelementptr inbounds i8, ptr %.0.i, i64 32
  %38 = load ptr, ptr %16, align 8
  %39 = load i32, ptr %21, align 4
  %40 = zext i32 %39 to i64
  %41 = getelementptr inbounds %struct._zend_op, ptr %38, i64 %40
  %42 = icmp ult ptr %37, %41
  br i1 %42, label %22, label %phpdbg_skip_line_helper.exit

phpdbg_skip_line_helper.exit:                     ; preds = %36
  call void @llvm.lifetime.end.p0(i64 16, ptr nonnull %2)
  br label %43

43:                                               ; preds = %phpdbg_skip_line_helper.exit, %5
  %.0 = phi i32 [ 3, %phpdbg_skip_line_helper.exit ], [ 0, %5 ]
  ret i32 %.0
}